target datalayout = "e-m:e-p270:32:32-p271:32:32-p272:64:64-i64:64-i128:128-f80:128-n8:16:32:64-S128"
target triple = "x86_64-pc-linux-gnu"

%struct.AVCodecContext = type { ptr, i32, i32, ptr, i32, i32, ptr, ptr, ptr, i64, i32, i32, ptr, i32, %struct.AVRational, %struct.AVRational, %struct.AVRational, i32, i32, i32, i32, i32, %struct.AVRational, i32, i32, i32, i32, i32, i32, i32, i32, i32, i32, i32, ptr, ptr, i32, float, float, float, float, float, float, float, float, float, i32, i32, i32, i32, i32, i32, i32, i32, i32, i32, i32, i32, ptr, ptr, ptr, i32, i32, i32, i32, i32, i32, i32, i32, i32, i32, %struct.AVChannelLayout, i32, i32, i32, i32, i32, i32, i32, i32, ptr, i32, i32, i32, float, float, i32, i32, i32, i32, i32, ptr, i64, i64, float, float, i32, i32, ptr, ptr, i32, i32, i32, i32, i32, ptr, ptr, ptr, ptr, i32, i32, [8 x i64], i32, i32, i32, i32, i32, i32, i32, ptr, ptr, i32, i32, i32, i32, i32, i32, i32, i32, i32, i32, ptr, ptr, i32, i32, ptr, ptr, ptr, ptr, i32, i32, i64, i32, i32, i64, ptr, i64, ptr, i32, ptr, i32 }
%struct.AVRational = type { i32, i32 }
%struct.AVChannelLayout = type { i32, i32, %union.anon.0, ptr }
%union.anon.0 = type { i64 }
%struct.RV60Context = type { ptr, %struct.VideoDSPContext, [3 x ptr], i32, i32, i32, i32, i32, i32, i32, i32, i32, i32, i32, i32, ptr, i32, ptr, i32, ptr, i32, ptr, ptr, [2 x i64], i64, [2 x i32], ptr, i32 }
%struct.VideoDSPContext = type { ptr, ptr }
%struct.ThreadProgress = type { i32, i32, %union.pthread_mutex_t, %union.pthread_cond_t }
%union.pthread_mutex_t = type { %struct.__pthread_mutex_s }
%struct.__pthread_mutex_s = type { i32, i32, i32, i32, i32, i16, i16, %struct.__pthread_internal_list }
%struct.__pthread_internal_list = type { ptr, ptr }
%union.pthread_cond_t = type { %struct.__pthread_cond_s }
%struct.__pthread_cond_s = type { %union.__atomic_wide_counter, %union.__atomic_wide_counter, [2 x i32], [2 x i32], i32, i32, [2 x i32] }
%union.__atomic_wide_counter = type { i64 }

; Function Attrs: cold nounwind optsize uwtable
define internal i32 @rv60_decode_end(ptr noundef %0) #0 {
  %2 = alloca ptr, align 8
  %3 = alloca ptr, align 8
  %4 = alloca i32, align 4
  %5 = alloca i32, align 4
  store ptr %0, ptr %2, align 8, !tbaa !4
  call void @llvm.lifetime.start.p0(i64 8, ptr %3) #11
  %6 = load ptr, ptr %2, align 8, !tbaa !4
  %7 = getelementptr inbounds nuw %struct.AVCodecContext, ptr %6, i32 0, i32 6
  %8 = load ptr, ptr %7, align 8, !tbaa !9
  store ptr %8, ptr %3, align 8, !tbaa !29
  call void @llvm.lifetime.start.p0(i64 4, ptr %4) #11
  store i32 0, ptr %4, align 4, !tbaa !36
  br label %9

9:                                                ; preds = %19, %1
  %10 = load i32, ptr %4, align 4, !tbaa !36
  %11 = icmp slt i32 %10, 3
  br i1 %11, label %13, label %12

12:                                               ; preds = %9
  call void @llvm.lifetime.end.p0(i64 4, ptr %4) #11
  br label %22

13:                                               ; preds = %9
  %14 = load ptr, ptr %3, align 8, !tbaa !29
  %15 = getelementptr inbounds nuw %struct.RV60Context, ptr %14, i32 0, i32 2
  %16 = load i32, ptr %4, align 4, !tbaa !36
  %17 = sext i32 %16 to i64
  %18 = getelementptr inbounds [3 x ptr], ptr %15, i64 0, i64 %17
  call void @av_frame_free(ptr noundef %18)
  br label %19

19:                                               ; preds = %13
  %20 = load i32, ptr %4, align 4, !tbaa !36
  %21 = add nsw i32 %20, 1
  store i32 %21, ptr %4, align 4, !tbaa !36
  br label %9, !llvm.loop !70

22:                                               ; preds = %12
  %23 = load ptr, ptr %3, align 8, !tbaa !29
  %24 = getelementptr inbounds nuw %struct.RV60Context, ptr %23, i32 0, i32 15
  call void @av_freep(ptr noundef %24)
  %25 = load ptr, ptr %3, align 8, !tbaa !29
  %26 = getelementptr inbounds nuw %struct.RV60Context, ptr %25, i32 0, i32 17
  call void @av_freep(ptr noundef %26)
  %27 = load ptr, ptr %3, align 8, !tbaa !29
  %28 = getelementptr inbounds nuw %struct.RV60Context, ptr %27, i32 0, i32 19
  call void @av_freep(ptr noundef %28)
  %29 = load ptr, ptr %3, align 8, !tbaa !29
  %30 = getelementptr inbounds nuw %struct.RV60Context, ptr %29, i32 0, i32 22
  call void @av_freep(ptr noundef %30)
  %31 = load ptr, ptr %3, align 8, !tbaa !29
  %32 = getelementptr inbounds nuw %struct.RV60Context, ptr %31, i32 0, i32 21
  call void @av_freep(ptr noundef %32)
  call void @llvm.lifetime.start.p0(i64 4, ptr %5) #11
  store i32 0, ptr %5, align 4, !tbaa !36
  br label %33

33:                                               ; preds = %47, %22
  %34 = load i32, ptr %5, align 4, !tbaa !36
  %35 = load ptr, ptr %3, align 8, !tbaa !29
  %36 = getelementptr inbounds nuw %struct.RV60Context, ptr %35, i32 0, i32 27
  %37 = load i32, ptr %36, align 8, !tbaa !71
  %38 = icmp ult i32 %34, %37
  br i1 %38, label %40, label %39

39:                                               ; preds = %33
  call void @llvm.lifetime.end.p0(i64 4, ptr %5) #11
  br label %50

40:                                               ; preds = %33
  %41 = load ptr, ptr %3, align 8, !tbaa !29
  %42 = getelementptr inbounds nuw %struct.RV60Context, ptr %41, i32 0, i32 26
  %43 = load ptr, ptr %42, align 8, !tbaa !72
  %44 = load i32, ptr %5, align 4, !tbaa !36
  %45 = sext i32 %44 to i64
  %46 = getelementptr inbounds %struct.ThreadProgress, ptr %43, i64 %45
  call void @ff_thread_progress_destroy(ptr noundef %46)
  br label %47

47:                                               ; preds = %40
  %48 = load i32, ptr %5, align 4, !tbaa !36
  %49 = add nsw i32 %48, 1
  store i32 %49, ptr %5, align 4, !tbaa !36
  br label %33, !llvm.loop !73

50:                                               ; preds = %39
  %51 = load ptr, ptr %3, align 8, !tbaa !29
  %52 = getelementptr inbounds nuw %struct.RV60Context, ptr %51, i32 0, i32 26
  call void @av_freep(ptr noundef %52)
  call void @llvm.lifetime.end.p0(i64 8, ptr %3) #11
  ret i32 0
}