; Function Attrs: cold nounwind optsize uwtable
define internal noundef i32 @rv60_decode_end(ptr noundef readonly captures(none) %0) #0 {
  %2 = getelementptr inbounds nuw i8, ptr %0, i64 32
  %3 = load ptr, ptr %2, align 8, !tbaa !4
  %4 = getelementptr inbounds nuw i8, ptr %3, i64 24
  br label %14

5:                                                ; preds = %14
  %6 = getelementptr inbounds nuw i8, ptr %3, i64 96
  tail call void @av_freep(ptr noundef nonnull %6) #16
  %7 = getelementptr inbounds nuw i8, ptr %3, i64 112
  tail call void @av_freep(ptr noundef nonnull %7) #16
  %8 = getelementptr inbounds nuw i8, ptr %3, i64 128
  tail call void @av_freep(ptr noundef nonnull %8) #16
  %9 = getelementptr inbounds nuw i8, ptr %3, i64 152
  tail call void @av_freep(ptr noundef nonnull %9) #16
  %10 = getelementptr inbounds nuw i8, ptr %3, i64 144
  tail call void @av_freep(ptr noundef nonnull %10) #16
  %11 = getelementptr inbounds nuw i8, ptr %3, i64 200
  %12 = load i32, ptr %11, align 8, !tbaa !78
  %.not = icmp eq i32 %12, 0
  br i1 %.not, label %._crit_edge, label %.lr.ph

.lr.ph:                                           ; preds = %5
  %13 = getelementptr inbounds nuw i8, ptr %3, i64 192
  br label %17

14:                                               ; preds = %1, %14
  %indvars.iv = phi i64 [ 0, %1 ], [ %indvars.iv.next, %14 ]
  %15 = getelementptr inbounds nuw [3 x ptr], ptr %4, i64 0, i64 %indvars.iv
  tail call void @av_frame_free(ptr noundef nonnull %15) #16
  %indvars.iv.next = add nuw nsw i64 %indvars.iv, 1
  %exitcond.not = icmp eq i64 %indvars.iv.next, 3
  br i1 %exitcond.not, label %5, label %14, !llvm.loop !79

._crit_edge:                                      ; preds = %17, %5
  %16 = getelementptr inbounds nuw i8, ptr %3, i64 192
  tail call void @av_freep(ptr noundef nonnull %16) #16
  ret i32 0

17:                                               ; preds = %.lr.ph, %17
  %indvars.iv19 = phi i64 [ 0, %.lr.ph ], [ %indvars.iv.next20, %17 ]
  %18 = load ptr, ptr %13, align 8, !tbaa !80
  %19 = getelementptr inbounds nuw %struct.ThreadProgress, ptr %18, i64 %indvars.iv19
  tail call void @ff_thread_progress_destroy(ptr noundef %19) #16
  %indvars.iv.next20 = add nuw nsw i64 %indvars.iv19, 1
  %20 = load i32, ptr %11, align 8, !tbaa !78
  %21 = zext i32 %20 to i64
  %22 = icmp samesign ult i64 %indvars.iv.next20, %21
  br i1 %22, label %17, label %._crit_edge, !llvm.loop !81
}